; Function Attrs: nounwind uwtable
define internal i32 @f_flush(ptr noundef %0) #0 {
  %2 = tail call ptr @luaL_checkudata(ptr noundef %0, i32 noundef 1, ptr noundef nonnull @.str.16) #9
  %3 = getelementptr inbounds nuw i8, ptr %2, i64 8
  %4 = load ptr, ptr %3, align 8, !tbaa !9
  %5 = icmp eq ptr %4, null
  br i1 %5, label %6, label %tofile.exit, !prof !12

6:                                                ; preds = %1
  %7 = tail call i32 (ptr, ptr, ...) @luaL_error(ptr noundef %0, ptr noundef nonnull @.str.17) #9
  br label %tofile.exit

tofile.exit:                                      ; preds = %1, %6
  %8 = load ptr, ptr %2, align 8, !tbaa !11
  %9 = tail call ptr @__errno_location() #10
  store i32 0, ptr %9, align 4, !tbaa !14
  %10 = tail call i32 @fflush(ptr noundef %8)
  %11 = icmp eq i32 %10, 0
  %12 = zext i1 %11 to i32
  %13 = tail call i32 @luaL_fileresult(ptr noundef %0, i32 noundef %12, ptr noundef null) #9
  ret i32 %13
}